; Function Attrs: mustprogress uwtable
define void @_ZNK16BaseMeshIOPlugin18exportImageFormatsB5cxx11Ev(ptr dead_on_unwind noalias writable sret(%"class.std::__cxx11::list") align 8 %0, ptr nocapture noundef nonnull readnone align 8 dereferenceable(32) %1) unnamed_addr #9 align 2 personality ptr @__gxx_personality_v0 {
  %3 = getelementptr inbounds i8, ptr %0, i64 8
  store ptr %0, ptr %3, align 8
  store ptr %0, ptr %0, align 8
  %4 = getelementptr inbounds i8, ptr %0, i64 16
  store i64 0, ptr %4, align 8
  %5 = load ptr, ptr @_ZL21exportImageFormatListB5cxx11, align 8
  %.not4.i.i = icmp eq ptr %5, @_ZL21exportImageFormatListB5cxx11
  br i1 %.not4.i.i, label %_ZNSt7__cxx114listI10FileFormatSaIS1_EEC2ERKS3_.exit, label %.lr.ph.i.i

.lr.ph.i.i:                                       ; preds = %2, %.noexc.i
  %.sroa.01.05.i.i = phi ptr [ %10, %.noexc.i ], [ %5, %2 ]
  %6 = getelementptr inbounds i8, ptr %.sroa.01.05.i.i, i64 16
  %7 = invoke noundef ptr @_ZNSt7__cxx114listI10FileFormatSaIS1_EE14_M_create_nodeIJRKS1_EEEPSt10_List_nodeIS1_EDpOT_(ptr noundef nonnull align 8 dereferenceable(24) %0, ptr noundef nonnull align 8 dereferenceable(16) %6)
          to label %.noexc.i unwind label %11

.noexc.i:                                         ; preds = %.lr.ph.i.i
  tail call void @_ZNSt8__detail15_List_node_base7_M_hookEPS0_(ptr noundef nonnull align 8 dereferenceable(16) %7, ptr noundef nonnull %0) #31
  %8 = load i64, ptr %4, align 8
  %9 = add i64 %8, 1
  store i64 %9, ptr %4, align 8
  %10 = load ptr, ptr %.sroa.01.05.i.i, align 8
  %.not.i.i = icmp eq ptr %10, @_ZL21exportImageFormatListB5cxx11
  br i1 %.not.i.i, label %_ZNSt7__cxx114listI10FileFormatSaIS1_EEC2ERKS3_.exit, label %.lr.ph.i.i, !llvm.loop !17

11:                                               ; preds = %.lr.ph.i.i
  %12 = landingpad { ptr, i32 }
          cleanup
  tail call void @_ZNSt7__cxx1110_List_baseI10FileFormatSaIS1_EED2Ev(ptr noundef nonnull align 8 dereferenceable(24) %0) #31
  resume { ptr, i32 } %12

_ZNSt7__cxx114listI10FileFormatSaIS1_EEC2ERKS3_.exit: ; preds = %.noexc.i, %2
  ret void
}